; Function Attrs: nounwind uwtable
define void @Abc_NtkFraigStoreClean() local_unnamed_addr #0 {
  %1 = tail call ptr (...) @Abc_FrameReadStore() #11
  %2 = getelementptr i8, ptr %1, i64 4
  %.val7 = load i32, ptr %2, align 4
  %3 = icmp sgt i32 %.val7, 0
  br i1 %3, label %.lr.ph, label %.critedge

.lr.ph:                                           ; preds = %0
  %4 = getelementptr i8, ptr %1, i64 8
  br label %5

5:                                                ; preds = %.lr.ph, %5
  %indvars.iv = phi i64 [ 0, %.lr.ph ], [ %indvars.iv.next, %5 ]
  %.val6 = load ptr, ptr %4, align 8
  %6 = getelementptr inbounds nuw ptr, ptr %.val6, i64 %indvars.iv
  %7 = load ptr, ptr %6, align 8
  tail call void @Abc_NtkDelete(ptr noundef %7) #11
  %indvars.iv.next = add nuw nsw i64 %indvars.iv, 1
  %.val = load i32, ptr %2, align 4
  %8 = sext i32 %.val to i64
  %9 = icmp slt i64 %indvars.iv.next, %8
  br i1 %9, label %5, label %.critedge, !llvm.loop !30

.critedge:                                        ; preds = %5, %0
  store i32 0, ptr %2, align 4
  ret void
}